target datalayout = "e-m:e-p270:32:32-p271:32:32-p272:64:64-i64:64-i128:128-f80:128-n8:16:32:64-S128"
target triple = "x86_64-pc-linux-gnu"

@.str = private unnamed_addr constant [6 x i8] c"/proc\00", align 1
@.str.1 = private unnamed_addr constant [15 x i8] c"/proc/self/exe\00", align 1
@.str.2 = private unnamed_addr constant [15 x i8] c"/proc/%llu/exe\00", align 1

; Function Attrs: nounwind uwtable
define internal ptr @readSymLink(ptr noundef %0) #0 {
  %2 = alloca ptr, align 8
  %3 = alloca ptr, align 8
  %4 = alloca ptr, align 8
  %5 = alloca i64, align 8
  %6 = alloca i64, align 8
  %7 = alloca ptr, align 8
  %8 = alloca i32, align 4
  store ptr %0, ptr %3, align 8
  call void @llvm.lifetime.start.p0(i64 8, ptr %4) #6
  store ptr null, ptr %4, align 8
  call void @llvm.lifetime.start.p0(i64 8, ptr %5) #6
  store i64 64, ptr %5, align 8
  call void @llvm.lifetime.start.p0(i64 8, ptr %6) #6
  store i64 -1, ptr %6, align 8
  br label %9

9:                                                ; preds = %41, %1
  br label %10

10:                                               ; preds = %9
  call void @llvm.lifetime.start.p0(i64 8, ptr %7) #6
  %11 = load ptr, ptr %4, align 8
  %12 = load i64, ptr %5, align 8
  %13 = call ptr @SDL_realloc_REAL(ptr noundef %11, i64 noundef %12) #7
  store ptr %13, ptr %7, align 8
  %14 = load ptr, ptr %7, align 8
  %15 = icmp ne ptr %14, null
  br i1 %15, label %17, label %16

16:                                               ; preds = %10
  store i32 3, ptr %8, align 4
  br label %39

17:                                               ; preds = %10
  %18 = load ptr, ptr %7, align 8
  store ptr %18, ptr %4, align 8
  %19 = load ptr, ptr %3, align 8
  %20 = load ptr, ptr %4, align 8
  %21 = load i64, ptr %5, align 8
  %22 = call i64 @readlink(ptr noundef %19, ptr noundef %20, i64 noundef %21) #6
  store i64 %22, ptr %6, align 8
  %23 = load i64, ptr %6, align 8
  %24 = icmp eq i64 %23, -1
  br i1 %24, label %25, label %26

25:                                               ; preds = %17
  store i32 3, ptr %8, align 4
  br label %39

26:                                               ; preds = %17
  %27 = load i64, ptr %6, align 8
  %28 = load i64, ptr %5, align 8
  %29 = icmp slt i64 %27, %28
  br i1 %29, label %30, label %35

30:                                               ; preds = %26
  %31 = load ptr, ptr %4, align 8
  %32 = load i64, ptr %6, align 8
  %33 = getelementptr inbounds i8, ptr %31, i64 %32
  store i8 0, ptr %33, align 1
  %34 = load ptr, ptr %4, align 8
  store ptr %34, ptr %2, align 8
  store i32 1, ptr %8, align 4
  br label %39

35:                                               ; preds = %26
  br label %36

36:                                               ; preds = %35
  %37 = load i64, ptr %5, align 8
  %38 = mul nsw i64 %37, 2
  store i64 %38, ptr %5, align 8
  store i32 0, ptr %8, align 4
  br label %39

39:                                               ; preds = %36, %30, %25, %16
  call void @llvm.lifetime.end.p0(i64 8, ptr %7) #6
  %40 = load i32, ptr %8, align 4
  switch i32 %40, label %44 [
    i32 0, label %41
    i32 3, label %42
  ]

41:                                               ; preds = %39
  br label %9

42:                                               ; preds = %39
  %43 = load ptr, ptr %4, align 8
  call void @SDL_free_REAL(ptr noundef %43)
  store ptr null, ptr %2, align 8
  store i32 1, ptr %8, align 4
  br label %44

44:                                               ; preds = %42, %39
  call void @llvm.lifetime.end.p0(i64 8, ptr %6) #6
  call void @llvm.lifetime.end.p0(i64 8, ptr %5) #6
  call void @llvm.lifetime.end.p0(i64 8, ptr %4) #6
  %45 = load ptr, ptr %2, align 8
  ret ptr %45
}

; Function Attrs: nounwind uwtable
define hidden ptr @SDL_SYS_GetBasePath() #0 {
  %1 = alloca ptr, align 8
  %2 = alloca [64 x i8], align 16
  %3 = alloca i32, align 4
  %4 = alloca ptr, align 8
  %5 = alloca ptr, align 8
  call void @llvm.lifetime.start.p0(i64 8, ptr %1) #6
  store ptr null, ptr %1, align 8
  %6 = load ptr, ptr %1, align 8
  %7 = icmp ne ptr %6, null
  br i1 %7, label %31, label %8

8:                                                ; preds = %0
  %9 = call i32 @access(ptr noundef @.str, i32 noundef 0) #6
  %10 = icmp eq i32 %9, 0
  br i1 %10, label %11, label %31

11:                                               ; preds = %8
  %12 = call ptr @readSymLink(ptr noundef @.str.1)
  store ptr %12, ptr %1, align 8
  %13 = load ptr, ptr %1, align 8
  %14 = icmp ne ptr %13, null
  br i1 %14, label %30, label %15

15:                                               ; preds = %11
  call void @llvm.lifetime.start.p0(i64 64, ptr %2) #6
  call void @llvm.lifetime.start.p0(i64 4, ptr %3) #6
  %16 = getelementptr inbounds [64 x i8], ptr %2, i64 0, i64 0
  %17 = call i32 @getpid() #6
  %18 = sext i32 %17 to i64
  %19 = call i32 (ptr, i64, ptr, ...) @SDL_snprintf_REAL(ptr noundef %16, i64 noundef 64, ptr noundef @.str.2, i64 noundef %18)
  store i32 %19, ptr %3, align 4
  %20 = load i32, ptr %3, align 4
  %21 = icmp sgt i32 %20, 0
  br i1 %21, label %22, label %29

22:                                               ; preds = %15
  %23 = load i32, ptr %3, align 4
  %24 = sext i32 %23 to i64
  %25 = icmp ult i64 %24, 64
  br i1 %25, label %26, label %29

26:                                               ; preds = %22
  %27 = getelementptr inbounds [64 x i8], ptr %2, i64 0, i64 0
  %28 = call ptr @readSymLink(ptr noundef %27)
  store ptr %28, ptr %1, align 8
  br label %29

29:                                               ; preds = %26, %22, %15
  call void @llvm.lifetime.end.p0(i64 4, ptr %3) #6
  call void @llvm.lifetime.end.p0(i64 64, ptr %2) #6
  br label %30

30:                                               ; preds = %29, %11
  br label %31

31:                                               ; preds = %30, %8, %0
  %32 = load ptr, ptr %1, align 8
  %33 = icmp ne ptr %32, null
  br i1 %33, label %34, label %45

34:                                               ; preds = %31
  call void @llvm.lifetime.start.p0(i64 8, ptr %4) #6
  %35 = load ptr, ptr %1, align 8
  %36 = call ptr @SDL_strrchr_REAL(ptr noundef %35, i32 noundef 47)
  store ptr %36, ptr %4, align 8
  %37 = load ptr, ptr %4, align 8
  %38 = icmp ne ptr %37, null
  br i1 %38, label %39, label %42

39:                                               ; preds = %34
  %40 = load ptr, ptr %4, align 8
  %41 = getelementptr inbounds i8, ptr %40, i64 1
  store i8 0, ptr %41, align 1
  br label %44

42:                                               ; preds = %34
  %43 = load ptr, ptr %1, align 8
  call void @SDL_free_REAL(ptr noundef %43)
  store ptr null, ptr %1, align 8
  br label %44

44:                                               ; preds = %42, %39
  call void @llvm.lifetime.end.p0(i64 8, ptr %4) #6
  br label %45

45:                                               ; preds = %44, %31
  %46 = load ptr, ptr %1, align 8
  %47 = icmp ne ptr %46, null
  br i1 %47, label %48, label %59

48:                                               ; preds = %45
  call void @llvm.lifetime.start.p0(i64 8, ptr %5) #6
  %49 = load ptr, ptr %1, align 8
  %50 = load ptr, ptr %1, align 8
  %51 = call i64 @SDL_strlen_REAL(ptr noundef %50)
  %52 = add i64 %51, 1
  %53 = call ptr @SDL_realloc_REAL(ptr noundef %49, i64 noundef %52) #7
  store ptr %53, ptr %5, align 8
  %54 = load ptr, ptr %5, align 8
  %55 = icmp ne ptr %54, null
  br i1 %55, label %56, label %58

56:                                               ; preds = %48
  %57 = load ptr, ptr %5, align 8
  store ptr %57, ptr %1, align 8
  br label %58

58:                                               ; preds = %56, %48
  call void @llvm.lifetime.end.p0(i64 8, ptr %5) #6
  br label %59

59:                                               ; preds = %58, %45
  %60 = load ptr, ptr %1, align 8
  call void @llvm.lifetime.end.p0(i64 8, ptr %1) #6
  ret ptr %60
}