; Function Attrs: nounwind uwtable
define hidden ptr @SDL_SYS_GetBasePath() local_unnamed_addr #0 {
  %1 = alloca [64 x i8], align 16
  %2 = tail call i32 @access(ptr noundef nonnull @.str, i32 noundef 0) #7
  %3 = icmp eq i32 %2, 0
  br i1 %3, label %4, label %.thread45

4:                                                ; preds = %0
  %5 = tail call dereferenceable_or_null(64) ptr @SDL_realloc_REAL(ptr noundef null, i64 noundef 64) #8
  %.not35.i = icmp eq ptr %5, null
  br i1 %.not35.i, label %.loopexit, label %.lr.ph.i

6:                                                ; preds = %12
  %7 = shl nsw i64 %.01736.i, 1
  %8 = tail call ptr @SDL_realloc_REAL(ptr noundef nonnull %9, i64 noundef %7) #8
  %.not.i = icmp eq ptr %8, null
  br i1 %.not.i, label %.loopexit, label %.lr.ph.i

.lr.ph.i:                                         ; preds = %4, %6
  %9 = phi ptr [ %8, %6 ], [ %5, %4 ]
  %.01736.i = phi i64 [ %7, %6 ], [ 64, %4 ]
  %10 = tail call i64 @readlink(ptr noundef nonnull @.str.1, ptr noundef nonnull %9, i64 noundef %.01736.i) #7
  %11 = icmp eq i64 %10, -1
  br i1 %11, label %.loopexit, label %12

12:                                               ; preds = %.lr.ph.i
  %13 = icmp slt i64 %10, %.01736.i
  br i1 %13, label %.thread37, label %6

.thread37:                                        ; preds = %12
  %14 = getelementptr inbounds i8, ptr %9, i64 %10
  store i8 0, ptr %14, align 1
  br label %31

.loopexit:                                        ; preds = %6, %.lr.ph.i, %4
  %.120.ph.i = phi ptr [ null, %4 ], [ %9, %.lr.ph.i ], [ %9, %6 ]
  tail call void @SDL_free_REAL(ptr noundef %.120.ph.i) #7
  call void @llvm.lifetime.start.p0(i64 64, ptr nonnull %1) #7
  %15 = tail call i32 @getpid() #7
  %16 = sext i32 %15 to i64
  %17 = call i32 (ptr, i64, ptr, ...) @SDL_snprintf_REAL(ptr noundef nonnull %1, i64 noundef 64, ptr noundef nonnull @.str.2, i64 noundef %16) #7
  %18 = add i32 %17, -1
  %or.cond = icmp ult i32 %18, 63
  br i1 %or.cond, label %19, label %.thread41

19:                                               ; preds = %.loopexit
  %20 = call dereferenceable_or_null(64) ptr @SDL_realloc_REAL(ptr noundef null, i64 noundef 64) #8
  %.not35.i24 = icmp eq ptr %20, null
  br i1 %.not35.i24, label %._crit_edge.i28, label %.lr.ph.i25

21:                                               ; preds = %27
  %22 = shl nsw i64 %.01736.i26, 1
  %23 = call ptr @SDL_realloc_REAL(ptr noundef nonnull %24, i64 noundef %22) #8
  %.not.i27 = icmp eq ptr %23, null
  br i1 %.not.i27, label %._crit_edge.i28, label %.lr.ph.i25

.lr.ph.i25:                                       ; preds = %19, %21
  %24 = phi ptr [ %23, %21 ], [ %20, %19 ]
  %.01736.i26 = phi i64 [ %22, %21 ], [ 64, %19 ]
  %25 = call i64 @readlink(ptr noundef nonnull readonly %1, ptr noundef nonnull %24, i64 noundef %.01736.i26) #7
  %26 = icmp eq i64 %25, -1
  br i1 %26, label %._crit_edge.i28, label %27

27:                                               ; preds = %.lr.ph.i25
  %28 = icmp slt i64 %25, %.01736.i26
  br i1 %28, label %29, label %21

._crit_edge.i28:                                  ; preds = %.lr.ph.i25, %21, %19
  %.120.ph.i29 = phi ptr [ null, %19 ], [ %24, %21 ], [ %24, %.lr.ph.i25 ]
  call void @SDL_free_REAL(ptr noundef %.120.ph.i29) #7
  br label %.thread41

.thread41:                                        ; preds = %.loopexit, %._crit_edge.i28
  call void @llvm.lifetime.end.p0(i64 64, ptr nonnull %1) #7
  br label %.thread45

29:                                               ; preds = %27
  %30 = getelementptr inbounds i8, ptr %24, i64 %25
  store i8 0, ptr %30, align 1
  call void @llvm.lifetime.end.p0(i64 64, ptr nonnull %1) #7
  br label %31

31:                                               ; preds = %29, %.thread37
  %.040 = phi ptr [ %9, %.thread37 ], [ %24, %29 ]
  %32 = call ptr @SDL_strrchr_REAL(ptr noundef nonnull %.040, i32 noundef 47) #7
  %.not21 = icmp eq ptr %32, null
  br i1 %.not21, label %33, label %34

33:                                               ; preds = %31
  call void @SDL_free_REAL(ptr noundef nonnull %.040) #7
  br label %.thread45

34:                                               ; preds = %31
  %35 = getelementptr inbounds nuw i8, ptr %32, i64 1
  store i8 0, ptr %35, align 1
  %36 = call i64 @SDL_strlen_REAL(ptr noundef nonnull %.040) #7
  %37 = add i64 %36, 1
  %38 = call ptr @SDL_realloc_REAL(ptr noundef nonnull %.040, i64 noundef %37) #8
  %.not23 = icmp eq ptr %38, null
  %spec.select = select i1 %.not23, ptr %.040, ptr %38
  br label %.thread45

.thread45:                                        ; preds = %0, %.thread41, %33, %34
  %.4 = phi ptr [ %spec.select, %34 ], [ null, %33 ], [ null, %.thread41 ], [ null, %0 ]
  ret ptr %.4
}